target datalayout = "e-m:e-p270:32:32-p271:32:32-p272:64:64-i64:64-i128:128-f80:128-n8:16:32:64-S128"
target triple = "x86_64-unknown-linux-gnu"

%struct.ata_port_operations = type { ptr, ptr, ptr, ptr, ptr, ptr, ptr, ptr, ptr, ptr, ptr, ptr, ptr, ptr, ptr, ptr, ptr, ptr, ptr, ptr, ptr, ptr, ptr, ptr, ptr, ptr, ptr, ptr, ptr, ptr, ptr, ptr, ptr, ptr, ptr, ptr, ptr, ptr, ptr, ptr, ptr, ptr, ptr, ptr, ptr, ptr, ptr, ptr, ptr, ptr, ptr, ptr, ptr, ptr, ptr, ptr, ptr, ptr, ptr, ptr }

@ata_dummy_port_ops = external dso_local global %struct.ata_port_operations, align 8
@.str.15 = private unnamed_addr constant [29 x i8] c"failed to allocate ATA host\0A\00", align 1
@.str.27 = private unnamed_addr constant [30 x i8] c"no valid port_info specified\0A\00", align 1

; Function Attrs: fn_ret_thunk_extern nounwind null_pointer_is_valid
define dso_local noundef i32 @ata_pci_sff_prepare_host(ptr noundef %0, ptr noundef %1, ptr nocapture noundef writeonly %2) #1 align 16 {
  %4 = getelementptr inbounds i8, ptr %0, i64 184
  %5 = tail call ptr @devres_open_group(ptr noundef %4, ptr noundef null, i32 noundef 3264) #13
  %6 = icmp eq ptr %5, null
  br i1 %6, label %18, label %7

7:                                                ; preds = %3
  %8 = tail call ptr @ata_host_alloc_pinfo(ptr noundef %4, ptr noundef %1, i32 noundef 2) #13
  %9 = icmp eq ptr %8, null
  br i1 %9, label %10, label %11

10:                                               ; preds = %7
  tail call void (ptr, ptr, ...) @_dev_err(ptr noundef %4, ptr noundef nonnull @.str.15) #14
  br label %15

11:                                               ; preds = %7
  %12 = tail call i32 @ata_pci_sff_init_host(ptr noundef nonnull %8), !range !107
  %13 = icmp eq i32 %12, 0
  br i1 %13, label %14, label %15

14:                                               ; preds = %11
  tail call void @devres_remove_group(ptr noundef %4, ptr noundef null) #13
  store ptr %8, ptr %2, align 8
  br label %18

15:                                               ; preds = %11, %10
  %16 = phi i32 [ %12, %11 ], [ -12, %10 ]
  %17 = tail call i32 @devres_release_group(ptr noundef %4, ptr noundef null) #13
  br label %18

18:                                               ; preds = %15, %14, %3
  %19 = phi i32 [ %16, %15 ], [ 0, %14 ], [ -12, %3 ]
  ret i32 %19
}

; Function Attrs: fn_ret_thunk_extern nounwind null_pointer_is_valid
define internal fastcc i32 @ata_pci_init_one(ptr noundef %0, ptr noundef %1, ptr noundef %2, ptr noundef %3, i32 noundef %4, i1 noundef zeroext %5) unnamed_addr #1 align 16 {
  %7 = alloca ptr, align 8
  %8 = getelementptr inbounds i8, ptr %0, i64 184
  call void @llvm.lifetime.start.p0(i64 8, ptr nonnull %7) #13
  store ptr null, ptr %7, align 8
  br label %12

9:                                                ; preds = %17
  %10 = add nuw nsw i64 %13, 1
  %11 = icmp eq i64 %13, 0
  br i1 %11, label %12, label %21, !llvm.loop !109

12:                                               ; preds = %9, %6
  %13 = phi i64 [ 0, %6 ], [ %10, %9 ]
  %14 = getelementptr ptr, ptr %1, i64 %13
  %15 = load ptr, ptr %14, align 8
  %16 = icmp eq ptr %15, null
  br i1 %16, label %21, label %17

17:                                               ; preds = %12
  %18 = getelementptr inbounds i8, ptr %15, i64 32
  %19 = load ptr, ptr %18, align 8
  %20 = icmp eq ptr %19, @ata_dummy_port_ops
  br i1 %20, label %9, label %22

21:                                               ; preds = %12, %9
  tail call void (ptr, ptr, ...) @_dev_err(ptr noundef %8, ptr noundef nonnull @.str.27) #14
  br label %54

22:                                               ; preds = %17
  %23 = tail call ptr @devres_open_group(ptr noundef %8, ptr noundef null, i32 noundef 3264) #13
  %24 = icmp eq ptr %23, null
  br i1 %24, label %54, label %25

25:                                               ; preds = %22
  %26 = tail call i32 @pcim_enable_device(ptr noundef %0) #13
  %27 = icmp eq i32 %26, 0
  br i1 %27, label %28, label %48

28:                                               ; preds = %25
  %29 = call i32 @ata_pci_sff_prepare_host(ptr noundef %0, ptr noundef %1, ptr noundef nonnull %7)
  %30 = icmp eq i32 %29, 0
  %31 = and i1 %30, %5
  br i1 %31, label %32, label %34

32:                                               ; preds = %28
  %33 = load ptr, ptr %7, align 8
  tail call void @ata_pci_bmdma_init(ptr noundef %33)
  br label %34

34:                                               ; preds = %32, %28
  %35 = phi i32 [ 0, %32 ], [ %29, %28 ]
  %36 = icmp eq i32 %35, 0
  br i1 %36, label %37, label %48

37:                                               ; preds = %34
  %38 = load ptr, ptr %7, align 8
  %39 = getelementptr inbounds i8, ptr %38, i64 32
  store ptr %3, ptr %39, align 8
  %40 = sext i32 %4 to i64
  %41 = getelementptr inbounds i8, ptr %38, i64 48
  %42 = load i64, ptr %41, align 8
  %43 = or i64 %42, %40
  store i64 %43, ptr %41, align 8
  br i1 %5, label %44, label %45

44:                                               ; preds = %37
  tail call void @pci_set_master(ptr noundef %0) #13
  br label %45

45:                                               ; preds = %44, %37
  %46 = phi ptr [ @ata_bmdma_interrupt, %44 ], [ @ata_sff_interrupt, %37 ]
  %47 = tail call i32 @ata_pci_sff_activate_host(ptr noundef %38, ptr noundef nonnull %46, ptr noundef %2)
  br label %48

48:                                               ; preds = %45, %34, %25
  %49 = phi i32 [ %26, %25 ], [ %35, %34 ], [ %47, %45 ]
  %50 = icmp eq i32 %49, 0
  br i1 %50, label %51, label %52

51:                                               ; preds = %48
  tail call void @devres_remove_group(ptr noundef %8, ptr noundef null) #13
  br label %54

52:                                               ; preds = %48
  %53 = tail call i32 @devres_release_group(ptr noundef %8, ptr noundef null) #13
  br label %54

54:                                               ; preds = %52, %51, %22, %21
  %55 = phi i32 [ -22, %21 ], [ -12, %22 ], [ %49, %52 ], [ %49, %51 ]
  call void @llvm.lifetime.end.p0(i64 8, ptr nonnull %7) #13
  ret i32 %55
}