; Function Attrs: fn_ret_thunk_extern nounwind null_pointer_is_valid
define internal fastcc i32 @ata_pci_init_one(ptr noundef %0, ptr noundef %1, ptr noundef %2, ptr noundef %3, i32 noundef %4, i1 noundef zeroext %5) unnamed_addr #1 align 16 {
  %7 = getelementptr inbounds i8, ptr %0, i64 184
  br label %9

8:                                                ; preds = %15
  br i1 %10, label %9, label %19, !llvm.loop !112

9:                                                ; preds = %8, %6
  %10 = phi i1 [ true, %6 ], [ false, %8 ]
  %11 = phi i64 [ 0, %6 ], [ 1, %8 ]
  %12 = getelementptr ptr, ptr %1, i64 %11
  %13 = load ptr, ptr %12, align 8
  %14 = icmp eq ptr %13, null
  br i1 %14, label %19, label %15

15:                                               ; preds = %9
  %16 = getelementptr inbounds i8, ptr %13, i64 32
  %17 = load ptr, ptr %16, align 8
  %18 = icmp eq ptr %17, @ata_dummy_port_ops
  br i1 %18, label %8, label %20

19:                                               ; preds = %9, %8
  tail call void (ptr, ptr, ...) @_dev_err(ptr noundef %7, ptr noundef nonnull @.str.27) #14
  br label %55

20:                                               ; preds = %15
  %21 = tail call ptr @devres_open_group(ptr noundef %7, ptr noundef null, i32 noundef 3264) #13
  %22 = icmp eq ptr %21, null
  br i1 %22, label %55, label %23

23:                                               ; preds = %20
  %24 = tail call i32 @pcim_enable_device(ptr noundef %0) #13
  %25 = icmp eq i32 %24, 0
  br i1 %25, label %26, label %.thread11

26:                                               ; preds = %23
  %27 = tail call ptr @devres_open_group(ptr noundef %7, ptr noundef null, i32 noundef 3264) #13
  %28 = icmp eq ptr %27, null
  br i1 %28, label %.thread11, label %29

29:                                               ; preds = %26
  %30 = tail call ptr @ata_host_alloc_pinfo(ptr noundef %7, ptr noundef %1, i32 noundef 2) #13
  %31 = icmp eq ptr %30, null
  br i1 %31, label %32, label %33

32:                                               ; preds = %29
  tail call void (ptr, ptr, ...) @_dev_err(ptr noundef %7, ptr noundef nonnull @.str.15) #14
  br label %36

33:                                               ; preds = %29
  %34 = tail call i32 @ata_pci_sff_init_host(ptr noundef nonnull %30), !range !110
  %35 = icmp eq i32 %34, 0
  br i1 %35, label %ata_pci_sff_prepare_host.exit, label %36

36:                                               ; preds = %33, %32
  %37 = phi i32 [ %34, %33 ], [ -12, %32 ]
  %38 = tail call i32 @devres_release_group(ptr noundef %7, ptr noundef null) #13
  br label %.thread11

ata_pci_sff_prepare_host.exit:                    ; preds = %33
  tail call void @devres_remove_group(ptr noundef %7, ptr noundef null) #13
  br i1 %5, label %.split, label %.split1.critedge

.split:                                           ; preds = %ata_pci_sff_prepare_host.exit
  tail call void @ata_pci_bmdma_init(ptr noundef nonnull %30)
  %39 = getelementptr inbounds i8, ptr %30, i64 32
  store ptr %3, ptr %39, align 8
  %40 = sext i32 %4 to i64
  %41 = getelementptr inbounds i8, ptr %30, i64 48
  %42 = load i64, ptr %41, align 8
  %43 = or i64 %42, %40
  store i64 %43, ptr %41, align 8
  tail call void @pci_set_master(ptr noundef %0) #13
  br label %49

.split1.critedge:                                 ; preds = %ata_pci_sff_prepare_host.exit
  %44 = getelementptr inbounds i8, ptr %30, i64 32
  store ptr %3, ptr %44, align 8
  %45 = sext i32 %4 to i64
  %46 = getelementptr inbounds i8, ptr %30, i64 48
  %47 = load i64, ptr %46, align 8
  %48 = or i64 %47, %45
  store i64 %48, ptr %46, align 8
  br label %49

49:                                               ; preds = %.split, %.split1.critedge
  %ata_bmdma_interrupt.sink = phi ptr [ @ata_bmdma_interrupt, %.split ], [ @ata_sff_interrupt, %.split1.critedge ]
  %50 = tail call i32 @ata_pci_sff_activate_host(ptr noundef nonnull %30, ptr noundef nonnull %ata_bmdma_interrupt.sink, ptr noundef %2)
  %51 = icmp eq i32 %50, 0
  br i1 %51, label %52, label %.thread11

52:                                               ; preds = %49
  tail call void @devres_remove_group(ptr noundef %7, ptr noundef null) #13
  br label %55

.thread11:                                        ; preds = %36, %26, %23, %49
  %53 = phi i32 [ %50, %49 ], [ %37, %36 ], [ -12, %26 ], [ %24, %23 ]
  %54 = tail call i32 @devres_release_group(ptr noundef %7, ptr noundef null) #13
  br label %55

55:                                               ; preds = %.thread11, %52, %20, %19
  %56 = phi i32 [ -22, %19 ], [ -12, %20 ], [ %53, %.thread11 ], [ 0, %52 ]
  ret i32 %56
}